target datalayout = "e-m:e-p270:32:32-p271:32:32-p272:64:64-i64:64-i128:128-f80:128-n8:16:32:64-S128"
target triple = "x86_64-pc-linux-gnu"

%class.SignatureStream = type { ptr, i32, i32, i32, i32, i8, i32, ptr, ptr }
%class.Symbol = type { i32, i16, [2 x i8] }

@_ZN6Symbol11_vm_symbolsE = external global [0 x ptr], align 8

; Function Attrs: mustprogress nounwind uwtable
define linkonce_odr hidden noundef i32 @_ZNK6Symbol6lengthEv(ptr noundef nonnull align 4 dereferenceable(8) %0) #1 comdat align 2 {
  %2 = alloca ptr, align 8
  store ptr %0, ptr %2, align 8
  %3 = load ptr, ptr %2, align 8
  %4 = getelementptr inbounds %class.Symbol, ptr %3, i32 0, i32 1
  %5 = load i16, ptr %4, align 4
  %6 = zext i16 %5 to i32
  ret i32 %6
}

; Function Attrs: mustprogress nounwind uwtable
define linkonce_odr hidden noundef ptr @_ZN9vmSymbols16java_lang_ObjectEv() #1 comdat align 2 {
  %1 = load ptr, ptr getelementptr inbounds ([0 x ptr], ptr @_ZN6Symbol11_vm_symbolsE, i64 0, i64 3), align 8
  ret ptr %1
}

; Function Attrs: mustprogress nounwind uwtable
define linkonce_odr hidden noundef i32 @_ZNK6Symbol11utf8_lengthEv(ptr noundef nonnull align 4 dereferenceable(8) %0) #1 comdat align 2 {
  %2 = alloca ptr, align 8
  store ptr %0, ptr %2, align 8
  %3 = load ptr, ptr %2, align 8
  %4 = call noundef i32 @_ZNK6Symbol6lengthEv(ptr noundef nonnull align 4 dereferenceable(8) %3)
  ret i32 %4
}

; Function Attrs: mustprogress nounwind uwtable
define hidden void @_ZN15SignatureStreamC2EPK6Symbolb(ptr noundef nonnull align 8 dereferenceable(48) %0, ptr noundef %1, i1 noundef zeroext %2) unnamed_addr #1 align 2 {
  %4 = alloca ptr, align 8
  %5 = alloca ptr, align 8
  %6 = alloca i8, align 1
  %7 = alloca i32, align 4
  store ptr %0, ptr %4, align 8
  store ptr %1, ptr %5, align 8
  %8 = zext i1 %2 to i8
  store i8 %8, ptr %6, align 1
  %9 = load ptr, ptr %4, align 8
  %10 = load ptr, ptr %5, align 8
  %11 = getelementptr inbounds %class.SignatureStream, ptr %9, i32 0, i32 0
  store ptr %10, ptr %11, align 8
  %12 = load ptr, ptr %5, align 8
  %13 = call noundef i32 @_ZNK6Symbol11utf8_lengthEv(ptr noundef nonnull align 4 dereferenceable(8) %12)
  %14 = getelementptr inbounds %class.SignatureStream, ptr %9, i32 0, i32 3
  store i32 %13, ptr %14, align 8
  %15 = load i8, ptr %6, align 1
  %16 = trunc i8 %15 to i1
  %17 = select i1 %16, i32 1, i32 0
  store i32 %17, ptr %7, align 4
  %18 = load i32, ptr %7, align 4
  %19 = getelementptr inbounds %class.SignatureStream, ptr %9, i32 0, i32 6
  store i32 %18, ptr %19, align 4
  %20 = load i32, ptr %7, align 4
  %21 = getelementptr inbounds %class.SignatureStream, ptr %9, i32 0, i32 2
  store i32 %20, ptr %21, align 4
  %22 = getelementptr inbounds %class.SignatureStream, ptr %9, i32 0, i32 1
  store i32 %20, ptr %22, align 8
  %23 = getelementptr inbounds %class.SignatureStream, ptr %9, i32 0, i32 4
  store i32 0, ptr %23, align 4
  %24 = call noundef ptr @_ZN9vmSymbols16java_lang_ObjectEv()
  %25 = getelementptr inbounds %class.SignatureStream, ptr %9, i32 0, i32 7
  store ptr %24, ptr %25, align 8
  %26 = getelementptr inbounds %class.SignatureStream, ptr %9, i32 0, i32 8
  store ptr null, ptr %26, align 8
  call void @_ZN15SignatureStream4nextEv(ptr noundef nonnull align 8 dereferenceable(48) %9)
  ret void
}