; Function Attrs: mustprogress nofree nounwind memory(read, argmem: readwrite, inaccessiblemem: none) uwtable
define hidden void @_ZN15SignatureStreamC2EPK6Symbolb(ptr nocapture noundef nonnull align 8 dereferenceable(48) %0, ptr noundef %1, i1 noundef zeroext %2) unnamed_addr #2 align 2 {
  store ptr %1, ptr %0, align 8
  %4 = getelementptr inbounds i8, ptr %1, i64 4
  %5 = load i16, ptr %4, align 4
  %6 = zext i16 %5 to i32
  %7 = getelementptr inbounds i8, ptr %0, i64 16
  store i32 %6, ptr %7, align 8
  %8 = zext i1 %2 to i32
  %9 = getelementptr inbounds i8, ptr %0, i64 28
  store i32 %8, ptr %9, align 4
  %10 = getelementptr inbounds i8, ptr %0, i64 12
  store i32 %8, ptr %10, align 4
  %11 = getelementptr inbounds i8, ptr %0, i64 8
  store i32 %8, ptr %11, align 8
  %12 = getelementptr inbounds i8, ptr %0, i64 20
  store i32 0, ptr %12, align 4
  %13 = load ptr, ptr getelementptr inbounds (i8, ptr @_ZN6Symbol11_vm_symbolsE, i64 24), align 8
  %14 = getelementptr inbounds i8, ptr %0, i64 32
  store ptr %13, ptr %14, align 8
  %15 = getelementptr inbounds i8, ptr %0, i64 40
  store ptr null, ptr %15, align 8
  tail call void @_ZN15SignatureStream4nextEv(ptr noundef nonnull align 8 dereferenceable(48) %0)
  ret void
}